target datalayout = "e-m:e-p270:32:32-p271:32:32-p272:64:64-i64:64-i128:128-f80:128-n8:16:32:64-S128"
target triple = "x86_64-pc-linux-gnu"

%struct._object = type { %union.anon, ptr }
%union.anon = type { i64 }

@_Py_NoneStruct = external global %struct._object, align 8
@.str.94 = private unnamed_addr constant [1 x i8] zeroinitializer, align 1
@.str.108 = private unnamed_addr constant [3 x i8] c"bb\00", align 1
@.str.114 = private unnamed_addr constant [7 x i8] c"Python\00", align 1
@.str.128 = private unnamed_addr constant [4 x i8] c"yth\00", align 1
@.str.129 = private unnamed_addr constant [6 x i8] c"ython\00", align 1
@.str.130 = private unnamed_addr constant [5 x i8] c"thon\00", align 1
@.str.131 = private unnamed_addr constant [4 x i8] c"hon\00", align 1
@.str.132 = private unnamed_addr constant [6 x i8] c"Pytho\00", align 1
@.str.133 = private unnamed_addr constant [3 x i8] c"zz\00", align 1
@.str.134 = private unnamed_addr constant [33 x i8] c"aaaaaaaaaaaaaaaaaaaaaaaaaaaaaaaa\00", align 1
@.str.135 = private unnamed_addr constant [3 x i8] c"ab\00", align 1
@.str.136 = private unnamed_addr constant [3 x i8] c"ba\00", align 1
@.str.137 = private unnamed_addr constant [33 x i8] c"aaaaaaaaaaaaaaaaaaaaaaaaaaaaaaab\00", align 1
@.str.138 = private unnamed_addr constant [33 x i8] c"aaaaaaaaaaaaaaaaaaaaaaaaaaaaaaba\00", align 1
@.str.139 = private unnamed_addr constant [33 x i8] c"aaaaaaaaaaaaaaaaaaaaaaaaaaaaaabb\00", align 1
@.str.140 = private unnamed_addr constant [17 x i8] c"0123456789abcdef\00", align 1
@.str.141 = private unnamed_addr constant [5 x i8] c"abcd\00", align 1

; Function Attrs: nounwind uwtable
define internal ptr @test_bytes_find(ptr noundef %0, ptr noundef %1) #0 {
  %3 = alloca ptr, align 8
  %4 = alloca ptr, align 8
  %5 = alloca ptr, align 8
  store ptr %0, ptr %4, align 8, !tbaa !3
  store ptr %1, ptr %5, align 8, !tbaa !3
  br label %6

6:                                                ; preds = %2
  %7 = call i32 @check_bytes_find(ptr noundef @.str.94, ptr noundef @.str.94, i32 noundef 0, i64 noundef 0)
  %8 = icmp slt i32 %7, 0
  br i1 %8, label %9, label %10

9:                                                ; preds = %6
  store ptr null, ptr %3, align 8
  br label %134

10:                                               ; preds = %6
  br label %11

11:                                               ; preds = %10
  br label %12

12:                                               ; preds = %11
  %13 = call i32 @check_bytes_find(ptr noundef @.str.114, ptr noundef @.str.94, i32 noundef 0, i64 noundef 0)
  %14 = icmp slt i32 %13, 0
  br i1 %14, label %15, label %16

15:                                               ; preds = %12
  store ptr null, ptr %3, align 8
  br label %134

16:                                               ; preds = %12
  br label %17

17:                                               ; preds = %16
  br label %18

18:                                               ; preds = %17
  %19 = call i32 @check_bytes_find(ptr noundef @.str.114, ptr noundef @.str.94, i32 noundef 3, i64 noundef 3)
  %20 = icmp slt i32 %19, 0
  br i1 %20, label %21, label %22

21:                                               ; preds = %18
  store ptr null, ptr %3, align 8
  br label %134

22:                                               ; preds = %18
  br label %23

23:                                               ; preds = %22
  br label %24

24:                                               ; preds = %23
  %25 = call i32 @check_bytes_find(ptr noundef @.str.114, ptr noundef @.str.94, i32 noundef 6, i64 noundef 6)
  %26 = icmp slt i32 %25, 0
  br i1 %26, label %27, label %28

27:                                               ; preds = %24
  store ptr null, ptr %3, align 8
  br label %134

28:                                               ; preds = %24
  br label %29

29:                                               ; preds = %28
  br label %30

30:                                               ; preds = %29
  %31 = call i32 @check_bytes_find(ptr noundef @.str.114, ptr noundef @.str.128, i32 noundef 0, i64 noundef 1)
  %32 = icmp slt i32 %31, 0
  br i1 %32, label %33, label %34

33:                                               ; preds = %30
  store ptr null, ptr %3, align 8
  br label %134

34:                                               ; preds = %30
  br label %35

35:                                               ; preds = %34
  br label %36

36:                                               ; preds = %35
  %37 = call i32 @check_bytes_find(ptr noundef @.str.129, ptr noundef @.str.128, i32 noundef 1, i64 noundef 1)
  %38 = icmp slt i32 %37, 0
  br i1 %38, label %39, label %40

39:                                               ; preds = %36
  store ptr null, ptr %3, align 8
  br label %134

40:                                               ; preds = %36
  br label %41

41:                                               ; preds = %40
  br label %42

42:                                               ; preds = %41
  %43 = call i32 @check_bytes_find(ptr noundef @.str.130, ptr noundef @.str.128, i32 noundef 2, i64 noundef -1)
  %44 = icmp slt i32 %43, 0
  br i1 %44, label %45, label %46

45:                                               ; preds = %42
  store ptr null, ptr %3, align 8
  br label %134

46:                                               ; preds = %42
  br label %47

47:                                               ; preds = %46
  br label %48

48:                                               ; preds = %47
  %49 = call i32 @check_bytes_find(ptr noundef @.str.114, ptr noundef @.str.130, i32 noundef 0, i64 noundef 2)
  %50 = icmp slt i32 %49, 0
  br i1 %50, label %51, label %52

51:                                               ; preds = %48
  store ptr null, ptr %3, align 8
  br label %134

52:                                               ; preds = %48
  br label %53

53:                                               ; preds = %52
  br label %54

54:                                               ; preds = %53
  %55 = call i32 @check_bytes_find(ptr noundef @.str.129, ptr noundef @.str.130, i32 noundef 1, i64 noundef 2)
  %56 = icmp slt i32 %55, 0
  br i1 %56, label %57, label %58

57:                                               ; preds = %54
  store ptr null, ptr %3, align 8
  br label %134

58:                                               ; preds = %54
  br label %59

59:                                               ; preds = %58
  br label %60

60:                                               ; preds = %59
  %61 = call i32 @check_bytes_find(ptr noundef @.str.130, ptr noundef @.str.130, i32 noundef 2, i64 noundef 2)
  %62 = icmp slt i32 %61, 0
  br i1 %62, label %63, label %64

63:                                               ; preds = %60
  store ptr null, ptr %3, align 8
  br label %134

64:                                               ; preds = %60
  br label %65

65:                                               ; preds = %64
  br label %66

66:                                               ; preds = %65
  %67 = call i32 @check_bytes_find(ptr noundef @.str.131, ptr noundef @.str.130, i32 noundef 3, i64 noundef -1)
  %68 = icmp slt i32 %67, 0
  br i1 %68, label %69, label %70

69:                                               ; preds = %66
  store ptr null, ptr %3, align 8
  br label %134

70:                                               ; preds = %66
  br label %71

71:                                               ; preds = %70
  br label %72

72:                                               ; preds = %71
  %73 = call i32 @check_bytes_find(ptr noundef @.str.132, ptr noundef @.str.133, i32 noundef 0, i64 noundef -1)
  %74 = icmp slt i32 %73, 0
  br i1 %74, label %75, label %76

75:                                               ; preds = %72
  store ptr null, ptr %3, align 8
  br label %134

76:                                               ; preds = %72
  br label %77

77:                                               ; preds = %76
  br label %78

78:                                               ; preds = %77
  %79 = call i32 @check_bytes_find(ptr noundef @.str.134, ptr noundef @.str.135, i32 noundef 0, i64 noundef -1)
  %80 = icmp slt i32 %79, 0
  br i1 %80, label %81, label %82

81:                                               ; preds = %78
  store ptr null, ptr %3, align 8
  br label %134

82:                                               ; preds = %78
  br label %83

83:                                               ; preds = %82
  br label %84

84:                                               ; preds = %83
  %85 = call i32 @check_bytes_find(ptr noundef @.str.134, ptr noundef @.str.136, i32 noundef 0, i64 noundef -1)
  %86 = icmp slt i32 %85, 0
  br i1 %86, label %87, label %88

87:                                               ; preds = %84
  store ptr null, ptr %3, align 8
  br label %134

88:                                               ; preds = %84
  br label %89

89:                                               ; preds = %88
  br label %90

90:                                               ; preds = %89
  %91 = call i32 @check_bytes_find(ptr noundef @.str.134, ptr noundef @.str.108, i32 noundef 0, i64 noundef -1)
  %92 = icmp slt i32 %91, 0
  br i1 %92, label %93, label %94

93:                                               ; preds = %90
  store ptr null, ptr %3, align 8
  br label %134

94:                                               ; preds = %90
  br label %95

95:                                               ; preds = %94
  br label %96

96:                                               ; preds = %95
  %97 = call i32 @check_bytes_find(ptr noundef @.str.137, ptr noundef @.str.135, i32 noundef 0, i64 noundef 30)
  %98 = icmp slt i32 %97, 0
  br i1 %98, label %99, label %100

99:                                               ; preds = %96
  store ptr null, ptr %3, align 8
  br label %134

100:                                              ; preds = %96
  br label %101

101:                                              ; preds = %100
  br label %102

102:                                              ; preds = %101
  %103 = call i32 @check_bytes_find(ptr noundef @.str.138, ptr noundef @.str.136, i32 noundef 0, i64 noundef 30)
  %104 = icmp slt i32 %103, 0
  br i1 %104, label %105, label %106

105:                                              ; preds = %102
  store ptr null, ptr %3, align 8
  br label %134

106:                                              ; preds = %102
  br label %107

107:                                              ; preds = %106
  br label %108

108:                                              ; preds = %107
  %109 = call i32 @check_bytes_find(ptr noundef @.str.139, ptr noundef @.str.108, i32 noundef 0, i64 noundef 30)
  %110 = icmp slt i32 %109, 0
  br i1 %110, label %111, label %112

111:                                              ; preds = %108
  store ptr null, ptr %3, align 8
  br label %134

112:                                              ; preds = %108
  br label %113

113:                                              ; preds = %112
  %114 = call i32 @check_bytes_find_large(i64 noundef 2048, i64 noundef 2, ptr noundef @.str.135)
  %115 = icmp slt i32 %114, 0
  br i1 %115, label %116, label %117

116:                                              ; preds = %113
  store ptr null, ptr %3, align 8
  br label %134

117:                                              ; preds = %113
  %118 = call i32 @check_bytes_find_large(i64 noundef 4096, i64 noundef 16, ptr noundef @.str.140)
  %119 = icmp slt i32 %118, 0
  br i1 %119, label %120, label %121

120:                                              ; preds = %117
  store ptr null, ptr %3, align 8
  br label %134

121:                                              ; preds = %117
  %122 = call i32 @check_bytes_find_large(i64 noundef 8192, i64 noundef 2, ptr noundef @.str.135)
  %123 = icmp slt i32 %122, 0
  br i1 %123, label %124, label %125

124:                                              ; preds = %121
  store ptr null, ptr %3, align 8
  br label %134

125:                                              ; preds = %121
  %126 = call i32 @check_bytes_find_large(i64 noundef 16384, i64 noundef 4, ptr noundef @.str.141)
  %127 = icmp slt i32 %126, 0
  br i1 %127, label %128, label %129

128:                                              ; preds = %125
  store ptr null, ptr %3, align 8
  br label %134

129:                                              ; preds = %125
  %130 = call i32 @check_bytes_find_large(i64 noundef 32768, i64 noundef 2, ptr noundef @.str.135)
  %131 = icmp slt i32 %130, 0
  br i1 %131, label %132, label %133

132:                                              ; preds = %129
  store ptr null, ptr %3, align 8
  br label %134

133:                                              ; preds = %129
  store ptr @_Py_NoneStruct, ptr %3, align 8
  br label %134

134:                                              ; preds = %133, %132, %128, %124, %120, %116, %111, %105, %99, %93, %87, %81, %75, %69, %63, %57, %51, %45, %39, %33, %27, %21, %15, %9
  %135 = load ptr, ptr %3, align 8
  ret ptr %135
}