; Function Attrs: nounwind uwtable
define internal ptr @test_bytes_find(ptr readnone captures(none) %0, ptr readnone captures(none) %1) #0 {
  %3 = tail call fastcc i32 @check_bytes_find(ptr noundef nonnull @.str.94, ptr noundef nonnull @.str.94, i32 noundef 0, i64 noundef 0)
  %4 = icmp slt i32 %3, 0
  br i1 %4, label %71, label %5

5:                                                ; preds = %2
  %6 = tail call fastcc i32 @check_bytes_find(ptr noundef nonnull @.str.114, ptr noundef nonnull @.str.94, i32 noundef 0, i64 noundef 0)
  %7 = icmp slt i32 %6, 0
  br i1 %7, label %71, label %8

8:                                                ; preds = %5
  %9 = tail call fastcc i32 @check_bytes_find(ptr noundef nonnull @.str.114, ptr noundef nonnull @.str.94, i32 noundef 3, i64 noundef 3)
  %10 = icmp slt i32 %9, 0
  br i1 %10, label %71, label %11

11:                                               ; preds = %8
  %12 = tail call fastcc i32 @check_bytes_find(ptr noundef nonnull @.str.114, ptr noundef nonnull @.str.94, i32 noundef 6, i64 noundef 6)
  %13 = icmp slt i32 %12, 0
  br i1 %13, label %71, label %14

14:                                               ; preds = %11
  %15 = tail call fastcc i32 @check_bytes_find(ptr noundef nonnull @.str.114, ptr noundef nonnull @.str.128, i32 noundef 0, i64 noundef 1)
  %16 = icmp slt i32 %15, 0
  br i1 %16, label %71, label %17

17:                                               ; preds = %14
  %18 = tail call fastcc i32 @check_bytes_find(ptr noundef nonnull @.str.129, ptr noundef nonnull @.str.128, i32 noundef 1, i64 noundef 1)
  %19 = icmp slt i32 %18, 0
  br i1 %19, label %71, label %20

20:                                               ; preds = %17
  %21 = tail call fastcc i32 @check_bytes_find(ptr noundef nonnull @.str.130, ptr noundef nonnull @.str.128, i32 noundef 2, i64 noundef -1)
  %22 = icmp slt i32 %21, 0
  br i1 %22, label %71, label %23

23:                                               ; preds = %20
  %24 = tail call fastcc i32 @check_bytes_find(ptr noundef nonnull @.str.114, ptr noundef nonnull @.str.130, i32 noundef 0, i64 noundef 2)
  %25 = icmp slt i32 %24, 0
  br i1 %25, label %71, label %26

26:                                               ; preds = %23
  %27 = tail call fastcc i32 @check_bytes_find(ptr noundef nonnull @.str.129, ptr noundef nonnull @.str.130, i32 noundef 1, i64 noundef 2)
  %28 = icmp slt i32 %27, 0
  br i1 %28, label %71, label %29

29:                                               ; preds = %26
  %30 = tail call fastcc i32 @check_bytes_find(ptr noundef nonnull @.str.130, ptr noundef nonnull @.str.130, i32 noundef 2, i64 noundef 2)
  %31 = icmp slt i32 %30, 0
  br i1 %31, label %71, label %32

32:                                               ; preds = %29
  %33 = tail call fastcc i32 @check_bytes_find(ptr noundef nonnull @.str.131, ptr noundef nonnull @.str.130, i32 noundef 3, i64 noundef -1)
  %34 = icmp slt i32 %33, 0
  br i1 %34, label %71, label %35

35:                                               ; preds = %32
  %36 = tail call fastcc i32 @check_bytes_find(ptr noundef nonnull @.str.132, ptr noundef nonnull @.str.133, i32 noundef 0, i64 noundef -1)
  %37 = icmp slt i32 %36, 0
  br i1 %37, label %71, label %38

38:                                               ; preds = %35
  %39 = tail call fastcc i32 @check_bytes_find(ptr noundef nonnull @.str.134, ptr noundef nonnull @.str.135, i32 noundef 0, i64 noundef -1)
  %40 = icmp slt i32 %39, 0
  br i1 %40, label %71, label %41

41:                                               ; preds = %38
  %42 = tail call fastcc i32 @check_bytes_find(ptr noundef nonnull @.str.134, ptr noundef nonnull @.str.136, i32 noundef 0, i64 noundef -1)
  %43 = icmp slt i32 %42, 0
  br i1 %43, label %71, label %44

44:                                               ; preds = %41
  %45 = tail call fastcc i32 @check_bytes_find(ptr noundef nonnull @.str.134, ptr noundef nonnull @.str.108, i32 noundef 0, i64 noundef -1)
  %46 = icmp slt i32 %45, 0
  br i1 %46, label %71, label %47

47:                                               ; preds = %44
  %48 = tail call fastcc i32 @check_bytes_find(ptr noundef nonnull @.str.137, ptr noundef nonnull @.str.135, i32 noundef 0, i64 noundef 30)
  %49 = icmp slt i32 %48, 0
  br i1 %49, label %71, label %50

50:                                               ; preds = %47
  %51 = tail call fastcc i32 @check_bytes_find(ptr noundef nonnull @.str.138, ptr noundef nonnull @.str.136, i32 noundef 0, i64 noundef 30)
  %52 = icmp slt i32 %51, 0
  br i1 %52, label %71, label %53

53:                                               ; preds = %50
  %54 = tail call fastcc i32 @check_bytes_find(ptr noundef nonnull @.str.139, ptr noundef nonnull @.str.108, i32 noundef 0, i64 noundef 30)
  %55 = icmp slt i32 %54, 0
  br i1 %55, label %71, label %56

56:                                               ; preds = %53
  %57 = tail call fastcc i32 @check_bytes_find_large(i64 noundef 2048, i64 noundef 2, ptr noundef nonnull @.str.135)
  %58 = icmp slt i32 %57, 0
  br i1 %58, label %71, label %59

59:                                               ; preds = %56
  %60 = tail call fastcc i32 @check_bytes_find_large(i64 noundef 4096, i64 noundef 16, ptr noundef nonnull @.str.140)
  %61 = icmp slt i32 %60, 0
  br i1 %61, label %71, label %62

62:                                               ; preds = %59
  %63 = tail call fastcc i32 @check_bytes_find_large(i64 noundef 8192, i64 noundef 2, ptr noundef nonnull @.str.135)
  %64 = icmp slt i32 %63, 0
  br i1 %64, label %71, label %65

65:                                               ; preds = %62
  %66 = tail call fastcc i32 @check_bytes_find_large(i64 noundef 16384, i64 noundef 4, ptr noundef nonnull @.str.141)
  %67 = icmp slt i32 %66, 0
  br i1 %67, label %71, label %68

68:                                               ; preds = %65
  %69 = tail call fastcc i32 @check_bytes_find_large(i64 noundef 32768, i64 noundef 2, ptr noundef nonnull @.str.135)
  %70 = icmp slt i32 %69, 0
  %._Py_NoneStruct = select i1 %70, ptr null, ptr @_Py_NoneStruct
  br label %71

71:                                               ; preds = %68, %65, %62, %59, %56, %53, %50, %47, %44, %41, %38, %35, %32, %29, %26, %23, %20, %17, %14, %11, %8, %5, %2
  %.0 = phi ptr [ null, %2 ], [ null, %5 ], [ null, %8 ], [ null, %11 ], [ null, %14 ], [ null, %17 ], [ null, %20 ], [ null, %23 ], [ null, %26 ], [ null, %29 ], [ null, %32 ], [ null, %35 ], [ null, %38 ], [ null, %41 ], [ null, %44 ], [ null, %47 ], [ null, %50 ], [ null, %53 ], [ null, %56 ], [ null, %59 ], [ null, %62 ], [ null, %65 ], [ %._Py_NoneStruct, %68 ]
  ret ptr %.0
}